target datalayout = "e-m:e-p270:32:32-p271:32:32-p272:64:64-i64:64-i128:128-f80:128-n8:16:32:64-S128"
target triple = "x86_64-pc-linux-gnu"

%struct.B = type <{ ptr, i32, [4 x i8] }>
%struct.B.base = type <{ ptr, i32 }>
%class.anon.1639 = type { i8 }
%struct.C1 = type <{ ptr, i32, [4 x i8], %struct.B.base, [4 x i8] }>

; Function Attrs: mustprogress nounwind uwtable
define internal void @_ZZ35test_submodule_multiple_inheritanceRN8pybind117module_EEN1BC2ERKS2_(ptr noundef nonnull align 8 dereferenceable(12) %0, ptr noundef nonnull align 8 dereferenceable(12) %1) unnamed_addr #5 align 2 {
  %3 = alloca ptr, align 8
  %4 = alloca ptr, align 8
  store ptr %0, ptr %3, align 8, !tbaa !3264
  store ptr %1, ptr %4, align 8, !tbaa !3264
  %5 = load ptr, ptr %3, align 8
  store ptr getelementptr inbounds inrange(-16, 16) ({ [4 x ptr] }, ptr @_ZTVZ35test_submodule_multiple_inheritanceRN8pybind117module_EE1B, i32 0, i32 0, i32 2), ptr %5, align 8, !tbaa !246
  %6 = getelementptr inbounds nuw %struct.B, ptr %5, i32 0, i32 1
  %7 = load ptr, ptr %4, align 8, !tbaa !3264
  %8 = getelementptr inbounds nuw %struct.B, ptr %7, i32 0, i32 1
  %9 = load i32, ptr %8, align 8, !tbaa !3303
  store i32 %9, ptr %6, align 8, !tbaa !3303
  ret void
}

; Function Attrs: inlinehint mustprogress nounwind uwtable
define internal void @_ZZ35test_submodule_multiple_inheritanceRN8pybind117module_EEN2C1C1EOS2_(ptr noundef nonnull align 8 dereferenceable(12) %0, ptr noundef nonnull align 8 dereferenceable(12) %1) unnamed_addr #0 align 2 {
  %3 = alloca ptr, align 8
  %4 = alloca ptr, align 8
  store ptr %0, ptr %3, align 8, !tbaa !3346
  store ptr %1, ptr %4, align 8, !tbaa !3346
  %5 = load ptr, ptr %3, align 8
  %6 = getelementptr inbounds i8, ptr %5, i64 16
  %7 = load ptr, ptr %4, align 8, !tbaa !3346
  %8 = load ptr, ptr %7, align 8, !tbaa !246
  %9 = getelementptr i8, ptr %8, i64 -24
  %10 = load i64, ptr %9, align 8
  %11 = getelementptr inbounds i8, ptr %7, i64 %10
  call void @_ZZ35test_submodule_multiple_inheritanceRN8pybind117module_EEN1BC2ERKS2_(ptr noundef nonnull align 8 dereferenceable(12) %6, ptr noundef nonnull align 8 dereferenceable(12) %11) #24
  store ptr getelementptr inbounds inrange(-24, 16) ({ [5 x ptr], [5 x ptr] }, ptr @_ZTVZ35test_submodule_multiple_inheritanceRN8pybind117module_EE2C1, i32 0, i32 0, i32 3), ptr %5, align 8, !tbaa !246
  %12 = getelementptr inbounds i8, ptr %5, i64 16
  store ptr getelementptr inbounds inrange(-24, 16) ({ [5 x ptr], [5 x ptr] }, ptr @_ZTVZ35test_submodule_multiple_inheritanceRN8pybind117module_EE2C1, i32 0, i32 1, i32 3), ptr %12, align 8, !tbaa !246
  %13 = getelementptr inbounds nuw %struct.C1, ptr %5, i32 0, i32 1
  %14 = load ptr, ptr %4, align 8, !tbaa !3346
  %15 = getelementptr inbounds nuw %struct.C1, ptr %14, i32 0, i32 1
  %16 = load i32, ptr %15, align 8, !tbaa !3385
  store i32 %16, ptr %13, align 8, !tbaa !3385
  ret void
}

; Function Attrs: inlinehint mustprogress uwtable
define internal noundef ptr @_ZZN8pybind116detail16type_caster_baseIZ35test_submodule_multiple_inheritanceRNS_7module_EE2C1E21make_move_constructorIS4_vEEDTcmnw_T_piclsr3stdE7declvalIOS7_EEEtlPFPvPKvEEEPKS7_ENKUlSB_E_clESB_(ptr noundef nonnull align 1 dereferenceable(1) %0, ptr noundef %1) #10 align 2 {
  %3 = alloca ptr, align 8
  %4 = alloca ptr, align 8
  store ptr %0, ptr %3, align 8, !tbaa !85
  store ptr %1, ptr %4, align 8, !tbaa !85
  %5 = call noalias noundef nonnull ptr @_Znwm(i64 noundef 32) #31
  %6 = load ptr, ptr %4, align 8, !tbaa !85
  call void @_ZZ35test_submodule_multiple_inheritanceRN8pybind117module_EEN2C1C1EOS2_(ptr noundef nonnull align 8 dereferenceable(12) %5, ptr noundef nonnull align 8 dereferenceable(12) %6) #24
  ret ptr %5
}

; Function Attrs: inlinehint mustprogress uwtable
define internal noundef ptr @_ZZN8pybind116detail16type_caster_baseIZ35test_submodule_multiple_inheritanceRNS_7module_EE2C1E21make_move_constructorIS4_vEEDTcmnw_T_piclsr3stdE7declvalIOS7_EEEtlPFPvPKvEEEPKS7_ENUlSB_E_8__invokeESB_(ptr noundef %0) #10 align 2 {
  %2 = alloca ptr, align 8
  %3 = alloca %class.anon.1639, align 1
  store ptr %0, ptr %2, align 8, !tbaa !85
  %4 = load ptr, ptr %2, align 8, !tbaa !85
  %5 = call noundef ptr @_ZZN8pybind116detail16type_caster_baseIZ35test_submodule_multiple_inheritanceRNS_7module_EE2C1E21make_move_constructorIS4_vEEDTcmnw_T_piclsr3stdE7declvalIOS7_EEEtlPFPvPKvEEEPKS7_ENKUlSB_E_clESB_(ptr noundef nonnull align 1 dereferenceable(1) %3, ptr noundef %4)
  ret ptr %5
}